target datalayout = "e-m:e-p270:32:32-p271:32:32-p272:64:64-i64:64-i128:128-f80:128-n8:16:32:64-S128"
target triple = "x86_64-pc-linux-gnu"

%"class.std::__cxx11::basic_string" = type { %"struct.std::__cxx11::basic_string<char>::_Alloc_hider", i64, %union.anon }
%"struct.std::__cxx11::basic_string<char>::_Alloc_hider" = type { ptr }
%union.anon = type { i64, [8 x i8] }
%"class.absl::debian2::AlphaNum" = type { %"class.absl::debian2::string_view", [32 x i8] }
%"class.absl::debian2::string_view" = type { ptr, i64 }
%"class.std::initializer_list.6" = type { ptr, i64 }

; Function Attrs: mustprogress nounwind uwtable
define linkonce_odr dso_local { ptr, i64 } @_ZNK4absl7debian28AlphaNum5PieceEv(ptr noundef nonnull align 8 dereferenceable(48) %0) #1 comdat align 2 {
  %2 = alloca %"class.absl::debian2::string_view", align 8
  %3 = alloca ptr, align 8
  store ptr %0, ptr %3, align 8, !tbaa !11
  %4 = load ptr, ptr %3, align 8
  %5 = getelementptr inbounds nuw %"class.absl::debian2::AlphaNum", ptr %4, i32 0, i32 0
  call void @llvm.memcpy.p0.p0.i64(ptr align 8 %2, ptr align 8 %5, i64 16, i1 false), !tbaa.struct !24
  %6 = load { ptr, i64 }, ptr %2, align 8
  ret { ptr, i64 } %6
}

; Function Attrs: inlinehint mustprogress uwtable
define linkonce_odr dso_local void @_ZN4absl7debian26StrCatIJN4i18n12phonenumbers12StringHolderES4_S4_S4_S4_S4_S4_S4_S4_S4_S4_EEENSt7__cxx1112basic_stringIcSt11char_traitsIcESaIcEEERKNS0_8AlphaNumESD_SD_SD_SD_DpRKT_(ptr dead_on_unwind noalias writable sret(%"class.std::__cxx11::basic_string") align 8 %0, ptr noundef nonnull align 8 dereferenceable(48) %1, ptr noundef nonnull align 8 dereferenceable(48) %2, ptr noundef nonnull align 8 dereferenceable(48) %3, ptr noundef nonnull align 8 dereferenceable(48) %4, ptr noundef nonnull align 8 dereferenceable(48) %5, ptr noundef nonnull align 8 dereferenceable(48) %6, ptr noundef nonnull align 8 dereferenceable(48) %7, ptr noundef nonnull align 8 dereferenceable(48) %8, ptr noundef nonnull align 8 dereferenceable(48) %9, ptr noundef nonnull align 8 dereferenceable(48) %10, ptr noundef nonnull align 8 dereferenceable(48) %11, ptr noundef nonnull align 8 dereferenceable(48) %12, ptr noundef nonnull align 8 dereferenceable(48) %13, ptr noundef nonnull align 8 dereferenceable(48) %14, ptr noundef nonnull align 8 dereferenceable(48) %15, ptr noundef nonnull align 8 dereferenceable(48) %16) #4 comdat {
  %18 = alloca ptr, align 8
  %19 = alloca ptr, align 8
  %20 = alloca ptr, align 8
  %21 = alloca ptr, align 8
  %22 = alloca ptr, align 8
  %23 = alloca ptr, align 8
  %24 = alloca ptr, align 8
  %25 = alloca ptr, align 8
  %26 = alloca ptr, align 8
  %27 = alloca ptr, align 8
  %28 = alloca ptr, align 8
  %29 = alloca ptr, align 8
  %30 = alloca ptr, align 8
  %31 = alloca ptr, align 8
  %32 = alloca ptr, align 8
  %33 = alloca ptr, align 8
  %34 = alloca ptr, align 8
  %35 = alloca %"class.std::initializer_list.6", align 8
  %36 = alloca [16 x %"class.absl::debian2::string_view"], align 8
  store ptr %0, ptr %18, align 8
  store ptr %1, ptr %19, align 8, !tbaa !11
  store ptr %2, ptr %20, align 8, !tbaa !11
  store ptr %3, ptr %21, align 8, !tbaa !11
  store ptr %4, ptr %22, align 8, !tbaa !11
  store ptr %5, ptr %23, align 8, !tbaa !11
  store ptr %6, ptr %24, align 8, !tbaa !70
  store ptr %7, ptr %25, align 8, !tbaa !70
  store ptr %8, ptr %26, align 8, !tbaa !70
  store ptr %9, ptr %27, align 8, !tbaa !70
  store ptr %10, ptr %28, align 8, !tbaa !70
  store ptr %11, ptr %29, align 8, !tbaa !70
  store ptr %12, ptr %30, align 8, !tbaa !70
  store ptr %13, ptr %31, align 8, !tbaa !70
  store ptr %14, ptr %32, align 8, !tbaa !70
  store ptr %15, ptr %33, align 8, !tbaa !70
  store ptr %16, ptr %34, align 8, !tbaa !70
  call void @llvm.lifetime.start.p0(i64 256, ptr %36) #16
  %37 = load ptr, ptr %19, align 8, !tbaa !11
  %38 = call { ptr, i64 } @_ZNK4absl7debian28AlphaNum5PieceEv(ptr noundef nonnull align 8 dereferenceable(48) %37)
  %39 = getelementptr inbounds nuw { ptr, i64 }, ptr %36, i32 0, i32 0
  %40 = extractvalue { ptr, i64 } %38, 0
  store ptr %40, ptr %39, align 8
  %41 = getelementptr inbounds nuw { ptr, i64 }, ptr %36, i32 0, i32 1
  %42 = extractvalue { ptr, i64 } %38, 1
  store i64 %42, ptr %41, align 8
  %43 = getelementptr inbounds %"class.absl::debian2::string_view", ptr %36, i64 1
  %44 = load ptr, ptr %20, align 8, !tbaa !11
  %45 = call { ptr, i64 } @_ZNK4absl7debian28AlphaNum5PieceEv(ptr noundef nonnull align 8 dereferenceable(48) %44)
  %46 = getelementptr inbounds nuw { ptr, i64 }, ptr %43, i32 0, i32 0
  %47 = extractvalue { ptr, i64 } %45, 0
  store ptr %47, ptr %46, align 8
  %48 = getelementptr inbounds nuw { ptr, i64 }, ptr %43, i32 0, i32 1
  %49 = extractvalue { ptr, i64 } %45, 1
  store i64 %49, ptr %48, align 8
  %50 = getelementptr inbounds %"class.absl::debian2::string_view", ptr %36, i64 2
  %51 = load ptr, ptr %21, align 8, !tbaa !11
  %52 = call { ptr, i64 } @_ZNK4absl7debian28AlphaNum5PieceEv(ptr noundef nonnull align 8 dereferenceable(48) %51)
  %53 = getelementptr inbounds nuw { ptr, i64 }, ptr %50, i32 0, i32 0
  %54 = extractvalue { ptr, i64 } %52, 0
  store ptr %54, ptr %53, align 8
  %55 = getelementptr inbounds nuw { ptr, i64 }, ptr %50, i32 0, i32 1
  %56 = extractvalue { ptr, i64 } %52, 1
  store i64 %56, ptr %55, align 8
  %57 = getelementptr inbounds %"class.absl::debian2::string_view", ptr %36, i64 3
  %58 = load ptr, ptr %22, align 8, !tbaa !11
  %59 = call { ptr, i64 } @_ZNK4absl7debian28AlphaNum5PieceEv(ptr noundef nonnull align 8 dereferenceable(48) %58)
  %60 = getelementptr inbounds nuw { ptr, i64 }, ptr %57, i32 0, i32 0
  %61 = extractvalue { ptr, i64 } %59, 0
  store ptr %61, ptr %60, align 8
  %62 = getelementptr inbounds nuw { ptr, i64 }, ptr %57, i32 0, i32 1
  %63 = extractvalue { ptr, i64 } %59, 1
  store i64 %63, ptr %62, align 8
  %64 = getelementptr inbounds %"class.absl::debian2::string_view", ptr %36, i64 4
  %65 = load ptr, ptr %23, align 8, !tbaa !11
  %66 = call { ptr, i64 } @_ZNK4absl7debian28AlphaNum5PieceEv(ptr noundef nonnull align 8 dereferenceable(48) %65)
  %67 = getelementptr inbounds nuw { ptr, i64 }, ptr %64, i32 0, i32 0
  %68 = extractvalue { ptr, i64 } %66, 0
  store ptr %68, ptr %67, align 8
  %69 = getelementptr inbounds nuw { ptr, i64 }, ptr %64, i32 0, i32 1
  %70 = extractvalue { ptr, i64 } %66, 1
  store i64 %70, ptr %69, align 8
  %71 = getelementptr inbounds %"class.absl::debian2::string_view", ptr %36, i64 5
  %72 = load ptr, ptr %24, align 8, !tbaa !70
  %73 = call { ptr, i64 } @_ZNK4absl7debian28AlphaNum5PieceEv(ptr noundef nonnull align 8 dereferenceable(48) %72)
  %74 = getelementptr inbounds nuw { ptr, i64 }, ptr %71, i32 0, i32 0
  %75 = extractvalue { ptr, i64 } %73, 0
  store ptr %75, ptr %74, align 8
  %76 = getelementptr inbounds nuw { ptr, i64 }, ptr %71, i32 0, i32 1
  %77 = extractvalue { ptr, i64 } %73, 1
  store i64 %77, ptr %76, align 8
  %78 = getelementptr inbounds %"class.absl::debian2::string_view", ptr %36, i64 6
  %79 = load ptr, ptr %25, align 8, !tbaa !70
  %80 = call { ptr, i64 } @_ZNK4absl7debian28AlphaNum5PieceEv(ptr noundef nonnull align 8 dereferenceable(48) %79)
  %81 = getelementptr inbounds nuw { ptr, i64 }, ptr %78, i32 0, i32 0
  %82 = extractvalue { ptr, i64 } %80, 0
  store ptr %82, ptr %81, align 8
  %83 = getelementptr inbounds nuw { ptr, i64 }, ptr %78, i32 0, i32 1
  %84 = extractvalue { ptr, i64 } %80, 1
  store i64 %84, ptr %83, align 8
  %85 = getelementptr inbounds %"class.absl::debian2::string_view", ptr %36, i64 7
  %86 = load ptr, ptr %26, align 8, !tbaa !70
  %87 = call { ptr, i64 } @_ZNK4absl7debian28AlphaNum5PieceEv(ptr noundef nonnull align 8 dereferenceable(48) %86)
  %88 = getelementptr inbounds nuw { ptr, i64 }, ptr %85, i32 0, i32 0
  %89 = extractvalue { ptr, i64 } %87, 0
  store ptr %89, ptr %88, align 8
  %90 = getelementptr inbounds nuw { ptr, i64 }, ptr %85, i32 0, i32 1
  %91 = extractvalue { ptr, i64 } %87, 1
  store i64 %91, ptr %90, align 8
  %92 = getelementptr inbounds %"class.absl::debian2::string_view", ptr %36, i64 8
  %93 = load ptr, ptr %27, align 8, !tbaa !70
  %94 = call { ptr, i64 } @_ZNK4absl7debian28AlphaNum5PieceEv(ptr noundef nonnull align 8 dereferenceable(48) %93)
  %95 = getelementptr inbounds nuw { ptr, i64 }, ptr %92, i32 0, i32 0
  %96 = extractvalue { ptr, i64 } %94, 0
  store ptr %96, ptr %95, align 8
  %97 = getelementptr inbounds nuw { ptr, i64 }, ptr %92, i32 0, i32 1
  %98 = extractvalue { ptr, i64 } %94, 1
  store i64 %98, ptr %97, align 8
  %99 = getelementptr inbounds %"class.absl::debian2::string_view", ptr %36, i64 9
  %100 = load ptr, ptr %28, align 8, !tbaa !70
  %101 = call { ptr, i64 } @_ZNK4absl7debian28AlphaNum5PieceEv(ptr noundef nonnull align 8 dereferenceable(48) %100)
  %102 = getelementptr inbounds nuw { ptr, i64 }, ptr %99, i32 0, i32 0
  %103 = extractvalue { ptr, i64 } %101, 0
  store ptr %103, ptr %102, align 8
  %104 = getelementptr inbounds nuw { ptr, i64 }, ptr %99, i32 0, i32 1
  %105 = extractvalue { ptr, i64 } %101, 1
  store i64 %105, ptr %104, align 8
  %106 = getelementptr inbounds %"class.absl::debian2::string_view", ptr %36, i64 10
  %107 = load ptr, ptr %29, align 8, !tbaa !70
  %108 = call { ptr, i64 } @_ZNK4absl7debian28AlphaNum5PieceEv(ptr noundef nonnull align 8 dereferenceable(48) %107)
  %109 = getelementptr inbounds nuw { ptr, i64 }, ptr %106, i32 0, i32 0
  %110 = extractvalue { ptr, i64 } %108, 0
  store ptr %110, ptr %109, align 8
  %111 = getelementptr inbounds nuw { ptr, i64 }, ptr %106, i32 0, i32 1
  %112 = extractvalue { ptr, i64 } %108, 1
  store i64 %112, ptr %111, align 8
  %113 = getelementptr inbounds %"class.absl::debian2::string_view", ptr %36, i64 11
  %114 = load ptr, ptr %30, align 8, !tbaa !70
  %115 = call { ptr, i64 } @_ZNK4absl7debian28AlphaNum5PieceEv(ptr noundef nonnull align 8 dereferenceable(48) %114)
  %116 = getelementptr inbounds nuw { ptr, i64 }, ptr %113, i32 0, i32 0
  %117 = extractvalue { ptr, i64 } %115, 0
  store ptr %117, ptr %116, align 8
  %118 = getelementptr inbounds nuw { ptr, i64 }, ptr %113, i32 0, i32 1
  %119 = extractvalue { ptr, i64 } %115, 1
  store i64 %119, ptr %118, align 8
  %120 = getelementptr inbounds %"class.absl::debian2::string_view", ptr %36, i64 12
  %121 = load ptr, ptr %31, align 8, !tbaa !70
  %122 = call { ptr, i64 } @_ZNK4absl7debian28AlphaNum5PieceEv(ptr noundef nonnull align 8 dereferenceable(48) %121)
  %123 = getelementptr inbounds nuw { ptr, i64 }, ptr %120, i32 0, i32 0
  %124 = extractvalue { ptr, i64 } %122, 0
  store ptr %124, ptr %123, align 8
  %125 = getelementptr inbounds nuw { ptr, i64 }, ptr %120, i32 0, i32 1
  %126 = extractvalue { ptr, i64 } %122, 1
  store i64 %126, ptr %125, align 8
  %127 = getelementptr inbounds %"class.absl::debian2::string_view", ptr %36, i64 13
  %128 = load ptr, ptr %32, align 8, !tbaa !70
  %129 = call { ptr, i64 } @_ZNK4absl7debian28AlphaNum5PieceEv(ptr noundef nonnull align 8 dereferenceable(48) %128)
  %130 = getelementptr inbounds nuw { ptr, i64 }, ptr %127, i32 0, i32 0
  %131 = extractvalue { ptr, i64 } %129, 0
  store ptr %131, ptr %130, align 8
  %132 = getelementptr inbounds nuw { ptr, i64 }, ptr %127, i32 0, i32 1
  %133 = extractvalue { ptr, i64 } %129, 1
  store i64 %133, ptr %132, align 8
  %134 = getelementptr inbounds %"class.absl::debian2::string_view", ptr %36, i64 14
  %135 = load ptr, ptr %33, align 8, !tbaa !70
  %136 = call { ptr, i64 } @_ZNK4absl7debian28AlphaNum5PieceEv(ptr noundef nonnull align 8 dereferenceable(48) %135)
  %137 = getelementptr inbounds nuw { ptr, i64 }, ptr %134, i32 0, i32 0
  %138 = extractvalue { ptr, i64 } %136, 0
  store ptr %138, ptr %137, align 8
  %139 = getelementptr inbounds nuw { ptr, i64 }, ptr %134, i32 0, i32 1
  %140 = extractvalue { ptr, i64 } %136, 1
  store i64 %140, ptr %139, align 8
  %141 = getelementptr inbounds %"class.absl::debian2::string_view", ptr %36, i64 15
  %142 = load ptr, ptr %34, align 8, !tbaa !70
  %143 = call { ptr, i64 } @_ZNK4absl7debian28AlphaNum5PieceEv(ptr noundef nonnull align 8 dereferenceable(48) %142)
  %144 = getelementptr inbounds nuw { ptr, i64 }, ptr %141, i32 0, i32 0
  %145 = extractvalue { ptr, i64 } %143, 0
  store ptr %145, ptr %144, align 8
  %146 = getelementptr inbounds nuw { ptr, i64 }, ptr %141, i32 0, i32 1
  %147 = extractvalue { ptr, i64 } %143, 1
  store i64 %147, ptr %146, align 8
  %148 = getelementptr inbounds nuw %"class.std::initializer_list.6", ptr %35, i32 0, i32 0
  store ptr %36, ptr %148, align 8, !tbaa !74
  %149 = getelementptr inbounds nuw %"class.std::initializer_list.6", ptr %35, i32 0, i32 1
  store i64 16, ptr %149, align 8, !tbaa !76
  %150 = getelementptr inbounds nuw { ptr, i64 }, ptr %35, i32 0, i32 0
  %151 = load ptr, ptr %150, align 8
  %152 = getelementptr inbounds nuw { ptr, i64 }, ptr %35, i32 0, i32 1
  %153 = load i64, ptr %152, align 8
  call void @_ZN4absl7debian216strings_internal9CatPiecesB5cxx11ESt16initializer_listINS0_11string_viewEE(ptr dead_on_unwind writable sret(%"class.std::__cxx11::basic_string") align 8 %0, ptr %151, i64 %153)
  call void @llvm.lifetime.end.p0(i64 256, ptr %36) #16
  ret void
}

; Function Attrs: mustprogress uwtable
define dso_local void @_ZN4i18n12phonenumbers6StrCatB5cxx11ERKNS0_12StringHolderES3_S3_S3_S3_S3_S3_S3_S3_S3_S3_S3_S3_S3_S3_S3_(ptr dead_on_unwind noalias writable sret(%"class.std::__cxx11::basic_string") align 8 %0, ptr noundef nonnull align 8 dereferenceable(48) %1, ptr noundef nonnull align 8 dereferenceable(48) %2, ptr noundef nonnull align 8 dereferenceable(48) %3, ptr noundef nonnull align 8 dereferenceable(48) %4, ptr noundef nonnull align 8 dereferenceable(48) %5, ptr noundef nonnull align 8 dereferenceable(48) %6, ptr noundef nonnull align 8 dereferenceable(48) %7, ptr noundef nonnull align 8 dereferenceable(48) %8, ptr noundef nonnull align 8 dereferenceable(48) %9, ptr noundef nonnull align 8 dereferenceable(48) %10, ptr noundef nonnull align 8 dereferenceable(48) %11, ptr noundef nonnull align 8 dereferenceable(48) %12, ptr noundef nonnull align 8 dereferenceable(48) %13, ptr noundef nonnull align 8 dereferenceable(48) %14, ptr noundef nonnull align 8 dereferenceable(48) %15, ptr noundef nonnull align 8 dereferenceable(48) %16) #0 {
  %18 = alloca ptr, align 8
  %19 = alloca ptr, align 8
  %20 = alloca ptr, align 8
  %21 = alloca ptr, align 8
  %22 = alloca ptr, align 8
  %23 = alloca ptr, align 8
  %24 = alloca ptr, align 8
  %25 = alloca ptr, align 8
  %26 = alloca ptr, align 8
  %27 = alloca ptr, align 8
  %28 = alloca ptr, align 8
  %29 = alloca ptr, align 8
  %30 = alloca ptr, align 8
  %31 = alloca ptr, align 8
  %32 = alloca ptr, align 8
  %33 = alloca ptr, align 8
  %34 = alloca ptr, align 8
  store ptr %0, ptr %18, align 8
  store ptr %1, ptr %19, align 8, !tbaa !70
  store ptr %2, ptr %20, align 8, !tbaa !70
  store ptr %3, ptr %21, align 8, !tbaa !70
  store ptr %4, ptr %22, align 8, !tbaa !70
  store ptr %5, ptr %23, align 8, !tbaa !70
  store ptr %6, ptr %24, align 8, !tbaa !70
  store ptr %7, ptr %25, align 8, !tbaa !70
  store ptr %8, ptr %26, align 8, !tbaa !70
  store ptr %9, ptr %27, align 8, !tbaa !70
  store ptr %10, ptr %28, align 8, !tbaa !70
  store ptr %11, ptr %29, align 8, !tbaa !70
  store ptr %12, ptr %30, align 8, !tbaa !70
  store ptr %13, ptr %31, align 8, !tbaa !70
  store ptr %14, ptr %32, align 8, !tbaa !70
  store ptr %15, ptr %33, align 8, !tbaa !70
  store ptr %16, ptr %34, align 8, !tbaa !70
  %35 = load ptr, ptr %19, align 8, !tbaa !70
  %36 = load ptr, ptr %20, align 8, !tbaa !70
  %37 = load ptr, ptr %21, align 8, !tbaa !70
  %38 = load ptr, ptr %22, align 8, !tbaa !70
  %39 = load ptr, ptr %23, align 8, !tbaa !70
  %40 = load ptr, ptr %24, align 8, !tbaa !70
  %41 = load ptr, ptr %25, align 8, !tbaa !70
  %42 = load ptr, ptr %26, align 8, !tbaa !70
  %43 = load ptr, ptr %27, align 8, !tbaa !70
  %44 = load ptr, ptr %28, align 8, !tbaa !70
  %45 = load ptr, ptr %29, align 8, !tbaa !70
  %46 = load ptr, ptr %30, align 8, !tbaa !70
  %47 = load ptr, ptr %31, align 8, !tbaa !70
  %48 = load ptr, ptr %32, align 8, !tbaa !70
  %49 = load ptr, ptr %33, align 8, !tbaa !70
  %50 = load ptr, ptr %34, align 8, !tbaa !70
  call void @_ZN4absl7debian26StrCatIJN4i18n12phonenumbers12StringHolderES4_S4_S4_S4_S4_S4_S4_S4_S4_S4_EEENSt7__cxx1112basic_stringIcSt11char_traitsIcESaIcEEERKNS0_8AlphaNumESD_SD_SD_SD_DpRKT_(ptr dead_on_unwind writable sret(%"class.std::__cxx11::basic_string") align 8 %0, ptr noundef nonnull align 8 dereferenceable(48) %35, ptr noundef nonnull align 8 dereferenceable(48) %36, ptr noundef nonnull align 8 dereferenceable(48) %37, ptr noundef nonnull align 8 dereferenceable(48) %38, ptr noundef nonnull align 8 dereferenceable(48) %39, ptr noundef nonnull align 8 dereferenceable(48) %40, ptr noundef nonnull align 8 dereferenceable(48) %41, ptr noundef nonnull align 8 dereferenceable(48) %42, ptr noundef nonnull align 8 dereferenceable(48) %43, ptr noundef nonnull align 8 dereferenceable(48) %44, ptr noundef nonnull align 8 dereferenceable(48) %45, ptr noundef nonnull align 8 dereferenceable(48) %46, ptr noundef nonnull align 8 dereferenceable(48) %47, ptr noundef nonnull align 8 dereferenceable(48) %48, ptr noundef nonnull align 8 dereferenceable(48) %49, ptr noundef nonnull align 8 dereferenceable(48) %50)
  ret void
}