; Function Attrs: mustprogress uwtable
define dso_local void @_ZN4i18n12phonenumbers6StrCatB5cxx11ERKNS0_12StringHolderES3_S3_S3_S3_S3_S3_S3_S3_S3_S3_S3_S3_S3_S3_S3_(ptr dead_on_unwind noalias writable sret(%"class.std::__cxx11::basic_string") align 8 %0, ptr noundef nonnull readonly align 8 captures(none) dereferenceable(48) %1, ptr noundef nonnull readonly align 8 captures(none) dereferenceable(48) %2, ptr noundef nonnull readonly align 8 captures(none) dereferenceable(48) %3, ptr noundef nonnull readonly align 8 captures(none) dereferenceable(48) %4, ptr noundef nonnull readonly align 8 captures(none) dereferenceable(48) %5, ptr noundef nonnull readonly align 8 captures(none) dereferenceable(48) %6, ptr noundef nonnull readonly align 8 captures(none) dereferenceable(48) %7, ptr noundef nonnull readonly align 8 captures(none) dereferenceable(48) %8, ptr noundef nonnull readonly align 8 captures(none) dereferenceable(48) %9, ptr noundef nonnull readonly align 8 captures(none) dereferenceable(48) %10, ptr noundef nonnull readonly align 8 captures(none) dereferenceable(48) %11, ptr noundef nonnull readonly align 8 captures(none) dereferenceable(48) %12, ptr noundef nonnull readonly align 8 captures(none) dereferenceable(48) %13, ptr noundef nonnull readonly align 8 captures(none) dereferenceable(48) %14, ptr noundef nonnull readonly align 8 captures(none) dereferenceable(48) %15, ptr noundef nonnull readonly align 8 captures(none) dereferenceable(48) %16) local_unnamed_addr #0 {
  %18 = alloca [16 x %"class.absl::debian2::string_view"], align 8
  call void @llvm.lifetime.start.p0(i64 256, ptr nonnull %18) #19, !noalias !94
  %.sroa.0.0.copyload.i.i = load ptr, ptr %1, align 8, !tbaa !31, !noalias !94
  %.sroa.2.0..sroa_idx.i.i = getelementptr inbounds nuw i8, ptr %1, i64 8
  %.sroa.2.0.copyload.i.i = load i64, ptr %.sroa.2.0..sroa_idx.i.i, align 8, !tbaa !22, !noalias !94
  store ptr %.sroa.0.0.copyload.i.i, ptr %18, align 8, !noalias !94
  %19 = getelementptr inbounds nuw i8, ptr %18, i64 8
  store i64 %.sroa.2.0.copyload.i.i, ptr %19, align 8, !noalias !94
  %20 = getelementptr inbounds nuw i8, ptr %18, i64 16
  %.sroa.0.0.copyload.i16.i = load ptr, ptr %2, align 8, !tbaa !31, !noalias !94
  %.sroa.2.0..sroa_idx.i17.i = getelementptr inbounds nuw i8, ptr %2, i64 8
  %.sroa.2.0.copyload.i18.i = load i64, ptr %.sroa.2.0..sroa_idx.i17.i, align 8, !tbaa !22, !noalias !94
  store ptr %.sroa.0.0.copyload.i16.i, ptr %20, align 8, !noalias !94
  %21 = getelementptr inbounds nuw i8, ptr %18, i64 24
  store i64 %.sroa.2.0.copyload.i18.i, ptr %21, align 8, !noalias !94
  %22 = getelementptr inbounds nuw i8, ptr %18, i64 32
  %.sroa.0.0.copyload.i21.i = load ptr, ptr %3, align 8, !tbaa !31, !noalias !94
  %.sroa.2.0..sroa_idx.i22.i = getelementptr inbounds nuw i8, ptr %3, i64 8
  %.sroa.2.0.copyload.i23.i = load i64, ptr %.sroa.2.0..sroa_idx.i22.i, align 8, !tbaa !22, !noalias !94
  store ptr %.sroa.0.0.copyload.i21.i, ptr %22, align 8, !noalias !94
  %23 = getelementptr inbounds nuw i8, ptr %18, i64 40
  store i64 %.sroa.2.0.copyload.i23.i, ptr %23, align 8, !noalias !94
  %24 = getelementptr inbounds nuw i8, ptr %18, i64 48
  %.sroa.0.0.copyload.i26.i = load ptr, ptr %4, align 8, !tbaa !31, !noalias !94
  %.sroa.2.0..sroa_idx.i27.i = getelementptr inbounds nuw i8, ptr %4, i64 8
  %.sroa.2.0.copyload.i28.i = load i64, ptr %.sroa.2.0..sroa_idx.i27.i, align 8, !tbaa !22, !noalias !94
  store ptr %.sroa.0.0.copyload.i26.i, ptr %24, align 8, !noalias !94
  %25 = getelementptr inbounds nuw i8, ptr %18, i64 56
  store i64 %.sroa.2.0.copyload.i28.i, ptr %25, align 8, !noalias !94
  %26 = getelementptr inbounds nuw i8, ptr %18, i64 64
  %.sroa.0.0.copyload.i31.i = load ptr, ptr %5, align 8, !tbaa !31, !noalias !94
  %.sroa.2.0..sroa_idx.i32.i = getelementptr inbounds nuw i8, ptr %5, i64 8
  %.sroa.2.0.copyload.i33.i = load i64, ptr %.sroa.2.0..sroa_idx.i32.i, align 8, !tbaa !22, !noalias !94
  store ptr %.sroa.0.0.copyload.i31.i, ptr %26, align 8, !noalias !94
  %27 = getelementptr inbounds nuw i8, ptr %18, i64 72
  store i64 %.sroa.2.0.copyload.i33.i, ptr %27, align 8, !noalias !94
  %28 = getelementptr inbounds nuw i8, ptr %18, i64 80
  %.sroa.0.0.copyload.i36.i = load ptr, ptr %6, align 8, !tbaa !31, !noalias !94
  %.sroa.2.0..sroa_idx.i37.i = getelementptr inbounds nuw i8, ptr %6, i64 8
  %.sroa.2.0.copyload.i38.i = load i64, ptr %.sroa.2.0..sroa_idx.i37.i, align 8, !tbaa !22, !noalias !94
  store ptr %.sroa.0.0.copyload.i36.i, ptr %28, align 8, !noalias !94
  %29 = getelementptr inbounds nuw i8, ptr %18, i64 88
  store i64 %.sroa.2.0.copyload.i38.i, ptr %29, align 8, !noalias !94
  %30 = getelementptr inbounds nuw i8, ptr %18, i64 96
  %.sroa.0.0.copyload.i41.i = load ptr, ptr %7, align 8, !tbaa !31, !noalias !94
  %.sroa.2.0..sroa_idx.i42.i = getelementptr inbounds nuw i8, ptr %7, i64 8
  %.sroa.2.0.copyload.i43.i = load i64, ptr %.sroa.2.0..sroa_idx.i42.i, align 8, !tbaa !22, !noalias !94
  store ptr %.sroa.0.0.copyload.i41.i, ptr %30, align 8, !noalias !94
  %31 = getelementptr inbounds nuw i8, ptr %18, i64 104
  store i64 %.sroa.2.0.copyload.i43.i, ptr %31, align 8, !noalias !94
  %32 = getelementptr inbounds nuw i8, ptr %18, i64 112
  %.sroa.0.0.copyload.i46.i = load ptr, ptr %8, align 8, !tbaa !31, !noalias !94
  %.sroa.2.0..sroa_idx.i47.i = getelementptr inbounds nuw i8, ptr %8, i64 8
  %.sroa.2.0.copyload.i48.i = load i64, ptr %.sroa.2.0..sroa_idx.i47.i, align 8, !tbaa !22, !noalias !94
  store ptr %.sroa.0.0.copyload.i46.i, ptr %32, align 8, !noalias !94
  %33 = getelementptr inbounds nuw i8, ptr %18, i64 120
  store i64 %.sroa.2.0.copyload.i48.i, ptr %33, align 8, !noalias !94
  %34 = getelementptr inbounds nuw i8, ptr %18, i64 128
  %.sroa.0.0.copyload.i51.i = load ptr, ptr %9, align 8, !tbaa !31, !noalias !94
  %.sroa.2.0..sroa_idx.i52.i = getelementptr inbounds nuw i8, ptr %9, i64 8
  %.sroa.2.0.copyload.i53.i = load i64, ptr %.sroa.2.0..sroa_idx.i52.i, align 8, !tbaa !22, !noalias !94
  store ptr %.sroa.0.0.copyload.i51.i, ptr %34, align 8, !noalias !94
  %35 = getelementptr inbounds nuw i8, ptr %18, i64 136
  store i64 %.sroa.2.0.copyload.i53.i, ptr %35, align 8, !noalias !94
  %36 = getelementptr inbounds nuw i8, ptr %18, i64 144
  %.sroa.0.0.copyload.i56.i = load ptr, ptr %10, align 8, !tbaa !31, !noalias !94
  %.sroa.2.0..sroa_idx.i57.i = getelementptr inbounds nuw i8, ptr %10, i64 8
  %.sroa.2.0.copyload.i58.i = load i64, ptr %.sroa.2.0..sroa_idx.i57.i, align 8, !tbaa !22, !noalias !94
  store ptr %.sroa.0.0.copyload.i56.i, ptr %36, align 8, !noalias !94
  %37 = getelementptr inbounds nuw i8, ptr %18, i64 152
  store i64 %.sroa.2.0.copyload.i58.i, ptr %37, align 8, !noalias !94
  %38 = getelementptr inbounds nuw i8, ptr %18, i64 160
  %.sroa.0.0.copyload.i61.i = load ptr, ptr %11, align 8, !tbaa !31, !noalias !94
  %.sroa.2.0..sroa_idx.i62.i = getelementptr inbounds nuw i8, ptr %11, i64 8
  %.sroa.2.0.copyload.i63.i = load i64, ptr %.sroa.2.0..sroa_idx.i62.i, align 8, !tbaa !22, !noalias !94
  store ptr %.sroa.0.0.copyload.i61.i, ptr %38, align 8, !noalias !94
  %39 = getelementptr inbounds nuw i8, ptr %18, i64 168
  store i64 %.sroa.2.0.copyload.i63.i, ptr %39, align 8, !noalias !94
  %40 = getelementptr inbounds nuw i8, ptr %18, i64 176
  %.sroa.0.0.copyload.i66.i = load ptr, ptr %12, align 8, !tbaa !31, !noalias !94
  %.sroa.2.0..sroa_idx.i67.i = getelementptr inbounds nuw i8, ptr %12, i64 8
  %.sroa.2.0.copyload.i68.i = load i64, ptr %.sroa.2.0..sroa_idx.i67.i, align 8, !tbaa !22, !noalias !94
  store ptr %.sroa.0.0.copyload.i66.i, ptr %40, align 8, !noalias !94
  %41 = getelementptr inbounds nuw i8, ptr %18, i64 184
  store i64 %.sroa.2.0.copyload.i68.i, ptr %41, align 8, !noalias !94
  %42 = getelementptr inbounds nuw i8, ptr %18, i64 192
  %.sroa.0.0.copyload.i71.i = load ptr, ptr %13, align 8, !tbaa !31, !noalias !94
  %.sroa.2.0..sroa_idx.i72.i = getelementptr inbounds nuw i8, ptr %13, i64 8
  %.sroa.2.0.copyload.i73.i = load i64, ptr %.sroa.2.0..sroa_idx.i72.i, align 8, !tbaa !22, !noalias !94
  store ptr %.sroa.0.0.copyload.i71.i, ptr %42, align 8, !noalias !94
  %43 = getelementptr inbounds nuw i8, ptr %18, i64 200
  store i64 %.sroa.2.0.copyload.i73.i, ptr %43, align 8, !noalias !94
  %44 = getelementptr inbounds nuw i8, ptr %18, i64 208
  %.sroa.0.0.copyload.i76.i = load ptr, ptr %14, align 8, !tbaa !31, !noalias !94
  %.sroa.2.0..sroa_idx.i77.i = getelementptr inbounds nuw i8, ptr %14, i64 8
  %.sroa.2.0.copyload.i78.i = load i64, ptr %.sroa.2.0..sroa_idx.i77.i, align 8, !tbaa !22, !noalias !94
  store ptr %.sroa.0.0.copyload.i76.i, ptr %44, align 8, !noalias !94
  %45 = getelementptr inbounds nuw i8, ptr %18, i64 216
  store i64 %.sroa.2.0.copyload.i78.i, ptr %45, align 8, !noalias !94
  %46 = getelementptr inbounds nuw i8, ptr %18, i64 224
  %.sroa.0.0.copyload.i81.i = load ptr, ptr %15, align 8, !tbaa !31, !noalias !94
  %.sroa.2.0..sroa_idx.i82.i = getelementptr inbounds nuw i8, ptr %15, i64 8
  %.sroa.2.0.copyload.i83.i = load i64, ptr %.sroa.2.0..sroa_idx.i82.i, align 8, !tbaa !22, !noalias !94
  store ptr %.sroa.0.0.copyload.i81.i, ptr %46, align 8, !noalias !94
  %47 = getelementptr inbounds nuw i8, ptr %18, i64 232
  store i64 %.sroa.2.0.copyload.i83.i, ptr %47, align 8, !noalias !94
  %48 = getelementptr inbounds nuw i8, ptr %18, i64 240
  %.sroa.0.0.copyload.i86.i = load ptr, ptr %16, align 8, !tbaa !31, !noalias !94
  %.sroa.2.0..sroa_idx.i87.i = getelementptr inbounds nuw i8, ptr %16, i64 8
  %.sroa.2.0.copyload.i88.i = load i64, ptr %.sroa.2.0..sroa_idx.i87.i, align 8, !tbaa !22, !noalias !94
  store ptr %.sroa.0.0.copyload.i86.i, ptr %48, align 8, !noalias !94
  %49 = getelementptr inbounds nuw i8, ptr %18, i64 248
  store i64 %.sroa.2.0.copyload.i88.i, ptr %49, align 8, !noalias !94
  call void @_ZN4absl7debian216strings_internal9CatPiecesB5cxx11ESt16initializer_listINS0_11string_viewEE(ptr dead_on_unwind writable sret(%"class.std::__cxx11::basic_string") align 8 %0, ptr nonnull %18, i64 16)
  call void @llvm.lifetime.end.p0(i64 256, ptr nonnull %18) #19, !noalias !94
  ret void
}